target datalayout = "e-m:e-p270:32:32-p271:32:32-p272:64:64-i64:64-i128:128-f80:128-n8:16:32:64-S128"
target triple = "x86_64-pc-linux-gnu"

%class.ParallelScavengeHeap = type { %class.CollectedHeap, ptr, ptr, ptr, ptr, ptr, %class.WorkerThreads }
%class.CollectedHeap = type { ptr, ptr, i64, i64, %class.SoftRefPolicy, %class.MemRegion, i8, i64, i32, i32, i32, i32, ptr, ptr }
%class.SoftRefPolicy = type { i8, i8 }
%class.MemRegion = type { ptr, i64 }
%class.WorkerThreads = type { ptr, ptr, ptr, i32, i32, i32, %class.WorkerTaskDispatcher }
%class.WorkerTaskDispatcher = type { ptr, i32, i32, %class.Semaphore, %class.Semaphore }
%class.Semaphore = type { %class.PosixSemaphore }
%class.PosixSemaphore = type { %union.sem_t }
%union.sem_t = type { i64, [24 x i8] }

@ParallelGCThreads = external global i32, align 4
@_ZTV20ParallelScavengeHeap = external unnamed_addr constant { [60 x ptr] }, align 8
@.str.5 = private unnamed_addr constant [10 x i8] c"GC Thread\00", align 1

; Function Attrs: mustprogress nounwind uwtable
define linkonce_odr hidden void @_ZN20ParallelScavengeHeapC2Ev(ptr noundef nonnull align 8 dereferenceable(264) %0) unnamed_addr #1 comdat align 2 {
  %2 = alloca ptr, align 8
  store ptr %0, ptr %2, align 8
  %3 = load ptr, ptr %2, align 8
  call void @_ZN13CollectedHeapC2Ev(ptr noundef nonnull align 8 dereferenceable(104) %3)
  store ptr getelementptr inbounds inrange(-16, 464) ({ [60 x ptr] }, ptr @_ZTV20ParallelScavengeHeap, i32 0, i32 0, i32 2), ptr %3, align 8
  %4 = getelementptr inbounds %class.ParallelScavengeHeap, ptr %3, i32 0, i32 1
  store ptr null, ptr %4, align 8
  %5 = getelementptr inbounds %class.ParallelScavengeHeap, ptr %3, i32 0, i32 2
  store ptr null, ptr %5, align 8
  %6 = getelementptr inbounds %class.ParallelScavengeHeap, ptr %3, i32 0, i32 3
  store ptr null, ptr %6, align 8
  %7 = getelementptr inbounds %class.ParallelScavengeHeap, ptr %3, i32 0, i32 4
  store ptr null, ptr %7, align 8
  %8 = getelementptr inbounds %class.ParallelScavengeHeap, ptr %3, i32 0, i32 5
  store ptr null, ptr %8, align 8
  %9 = getelementptr inbounds %class.ParallelScavengeHeap, ptr %3, i32 0, i32 6
  %10 = load i32, ptr @ParallelGCThreads, align 4
  call void @_ZN13WorkerThreadsC1EPKcj(ptr noundef nonnull align 8 dereferenceable(120) %9, ptr noundef @.str.5, i32 noundef %10)
  ret void
}

; Function Attrs: mustprogress nounwind uwtable
define hidden noundef ptr @_ZN17ParallelArguments11create_heapEv(ptr noundef nonnull align 8 dereferenceable(8) %0) unnamed_addr #1 align 2 {
  %2 = alloca i64, align 8
  %3 = alloca i8, align 1
  %4 = alloca i64, align 8
  %5 = alloca ptr, align 8
  store ptr %0, ptr %5, align 8
  store i64 264, ptr %4, align 8
  %6 = load i64, ptr %4, align 8
  store i64 %6, ptr %2, align 8
  store i8 5, ptr %3, align 1
  %7 = load i64, ptr %2, align 8
  %8 = load i8, ptr %3, align 1
  %9 = call noundef ptr @_Z12AllocateHeapm8MEMFLAGSN17AllocFailStrategy13AllocFailEnumE(i64 noundef %7, i8 noundef zeroext %8, i32 noundef 0) #3
  call void @_ZN20ParallelScavengeHeapC2Ev(ptr noundef nonnull align 8 dereferenceable(264) %9)
  ret ptr %9
}